; Function Attrs: mustprogress nofree norecurse nosync nounwind willreturn memory(read, argmem: readwrite, inaccessiblemem: none) uwtable
define noundef signext i8 @_ZN6icu_7515AlphabeticIndex10nextRecordER10UErrorCode(ptr nocapture noundef nonnull align 8 dereferenceable(400) %this, ptr nocapture noundef nonnull align 4 dereferenceable(4) %status) unnamed_addr #11 align 2 {
entry:
  %0 = load i32, ptr %status, align 4
  %cmp.i = icmp slt i32 %0, 1
  br i1 %cmp.i, label %if.end, label %return

if.end:                                           ; preds = %entry
  %currentBucket_ = getelementptr inbounds i8, ptr %this, i64 24
  %1 = load ptr, ptr %currentBucket_, align 8
  %cmp = icmp eq ptr %1, null
  br i1 %cmp, label %if.then2, label %if.end3

if.then2:                                         ; preds = %if.end
  store i32 27, ptr %status, align 4
  br label %return

if.end3:                                          ; preds = %if.end
  %buckets_ = getelementptr inbounds i8, ptr %this, i64 72
  %2 = load ptr, ptr %buckets_, align 8
  %cmp4 = icmp eq ptr %2, null
  br i1 %cmp4, label %if.then5, label %if.end6

if.then5:                                         ; preds = %if.end3
  store i32 25, ptr %status, align 4
  br label %return

if.end6:                                          ; preds = %if.end3
  %records_ = getelementptr inbounds i8, ptr %1, i64 160
  %3 = load ptr, ptr %records_, align 8
  %cmp8 = icmp eq ptr %3, null
  br i1 %cmp8, label %return, label %if.end10

if.end10:                                         ; preds = %if.end6
  %itemsIterIndex_ = getelementptr inbounds i8, ptr %this, i64 20
  %4 = load i32, ptr %itemsIterIndex_, align 4
  %inc = add nsw i32 %4, 1
  store i32 %inc, ptr %itemsIterIndex_, align 4
  %5 = load ptr, ptr %records_, align 8
  %count.i = getelementptr inbounds i8, ptr %5, i64 8
  %6 = load i32, ptr %count.i, align 8
  %cmp15.not = icmp slt i32 %inc, %6
  %spec.store.select = tail call i32 @llvm.smin.i32(i32 %inc, i32 %6)
  store i32 %spec.store.select, ptr %itemsIterIndex_, align 4
  %spec.select = zext i1 %cmp15.not to i8
  br label %return

return:                                           ; preds = %if.end10, %if.end6, %entry, %if.then5, %if.then2
  %retval.0 = phi i8 [ 0, %if.then2 ], [ 0, %if.then5 ], [ 0, %entry ], [ 0, %if.end6 ], [ %spec.select, %if.end10 ]
  ret i8 %retval.0
}